target datalayout = "e-m:e-p270:32:32-p271:32:32-p272:64:64-i64:64-i128:128-f80:128-n8:16:32:64-S128"
target triple = "x86_64-pc-linux-gnu"

%struct._diam_avp_t = type { i32, ptr, ptr, i32, i32, ptr }

; Function Attrs: null_pointer_is_valid sspstrong uwtable
define internal ptr @build_address_avp(ptr noundef %0, i32 noundef %1, ptr noundef %2, ptr noundef %3, ptr noundef %4, ptr noundef %5) #0 {
  %7 = alloca ptr, align 8
  %8 = alloca i32, align 4
  %9 = alloca ptr, align 8
  %10 = alloca ptr, align 8
  %11 = alloca ptr, align 8
  %12 = alloca ptr, align 8
  %13 = alloca ptr, align 8
  %14 = alloca ptr, align 8
  store ptr %0, ptr %7, align 8
  store i32 %1, ptr %8, align 4
  store ptr %2, ptr %9, align 8
  store ptr %3, ptr %10, align 8
  store ptr %4, ptr %11, align 8
  store ptr %5, ptr %12, align 8
  call void @llvm.lifetime.start.p0(i64 8, ptr %13) #14
  %15 = call ptr @wmem_epan_scope()
  %16 = call noalias ptr @wmem_alloc0(ptr noundef %15, i64 noundef 40) #15
  store ptr %16, ptr %13, align 8
  call void @llvm.lifetime.start.p0(i64 8, ptr %14) #14
  %17 = call ptr @wmem_epan_scope()
  %18 = call noalias ptr @wmem_alloc(ptr noundef %17, i64 noundef 24) #15
  store ptr %18, ptr %14, align 8
  %19 = load i32, ptr %8, align 4
  %20 = load ptr, ptr %13, align 8
  %21 = getelementptr inbounds nuw %struct._diam_avp_t, ptr %20, i32 0, i32 0
  store i32 %19, ptr %21, align 8
  %22 = load ptr, ptr %9, align 8
  %23 = load ptr, ptr %13, align 8
  %24 = getelementptr inbounds nuw %struct._diam_avp_t, ptr %23, i32 0, i32 1
  store ptr %22, ptr %24, align 8
  %25 = load ptr, ptr %13, align 8
  %26 = getelementptr inbounds nuw %struct._diam_avp_t, ptr %25, i32 0, i32 2
  store ptr @address_rfc_avp, ptr %26, align 8
  %27 = load ptr, ptr %13, align 8
  %28 = load ptr, ptr %14, align 8
  %29 = load ptr, ptr %10, align 8
  %30 = call ptr @build_gen_address_avp(ptr noundef %27, ptr noundef %28, ptr noundef %29)
  call void @llvm.lifetime.end.p0(i64 8, ptr %14) #14
  call void @llvm.lifetime.end.p0(i64 8, ptr %13) #14
  ret ptr %30
}