; Function Attrs: null_pointer_is_valid sspstrong uwtable
define internal noundef ptr @build_address_avp(ptr readnone captures(none) %0, i32 noundef %1, ptr noundef %2, ptr noundef %3, ptr readnone captures(none) %4, ptr readnone captures(none) %5) #0 {
  %7 = tail call ptr @wmem_epan_scope()
  %8 = tail call noalias dereferenceable_or_null(40) ptr @wmem_alloc0(ptr noundef %7, i64 noundef 40) #15
  %9 = tail call ptr @wmem_epan_scope()
  %10 = tail call noalias dereferenceable_or_null(24) ptr @wmem_alloc(ptr noundef %9, i64 noundef 24) #15
  store i32 %1, ptr %8, align 8
  %11 = getelementptr inbounds nuw i8, ptr %8, i64 8
  store ptr %2, ptr %11, align 8
  %12 = getelementptr inbounds nuw i8, ptr %8, i64 16
  store ptr @address_rfc_avp, ptr %12, align 8
  %13 = tail call fastcc ptr @build_gen_address_avp(ptr noundef %8, ptr noundef %10, ptr noundef %3)
  ret ptr %8
}